target datalayout = "e-m:e-p270:32:32-p271:32:32-p272:64:64-i64:64-i128:128-f80:128-n8:16:32:64-S128"
target triple = "x86_64-pc-linux-gnu"

@hf_bthci_evt_connection_handle = internal global i32 0, align 4
@hf_bthci_evt_local_sam_index = internal global i32 0, align 4
@hf_bthci_evt_local_sam_tx_availability = internal global i32 0, align 4
@hf_bthci_evt_local_sam_rx_availability = internal global i32 0, align 4
@hf_bthci_evt_remote_sam_index = internal global i32 0, align 4
@hf_bthci_evt_remote_sam_tx_availability = internal global i32 0, align 4
@hf_bthci_evt_remote_sam_rx_availability = internal global i32 0, align 4

; Function Attrs: null_pointer_is_valid sspstrong uwtable
define internal i32 @dissect_bthci_evt_sam_status_change(ptr noundef %0, i32 noundef %1, ptr noundef %2, ptr noundef %3) #1 {
  %5 = alloca ptr, align 8
  %6 = alloca i32, align 4
  %7 = alloca ptr, align 8
  %8 = alloca ptr, align 8
  store ptr %0, ptr %5, align 8
  store i32 %1, ptr %6, align 4
  store ptr %2, ptr %7, align 8
  store ptr %3, ptr %8, align 8
  %9 = load ptr, ptr %8, align 8
  %10 = load i32, ptr @hf_bthci_evt_connection_handle, align 4
  %11 = load ptr, ptr %5, align 8
  %12 = load i32, ptr %6, align 4
  %13 = call ptr @proto_tree_add_item(ptr noundef %9, i32 noundef %10, ptr noundef %11, i32 noundef %12, i32 noundef 2, i32 noundef -2147483648)
  %14 = load i32, ptr %6, align 4
  %15 = add i32 %14, 2
  store i32 %15, ptr %6, align 4
  %16 = load ptr, ptr %8, align 8
  %17 = load i32, ptr @hf_bthci_evt_local_sam_index, align 4
  %18 = load ptr, ptr %5, align 8
  %19 = load i32, ptr %6, align 4
  %20 = call ptr @proto_tree_add_item(ptr noundef %16, i32 noundef %17, ptr noundef %18, i32 noundef %19, i32 noundef 1, i32 noundef 0)
  %21 = load i32, ptr %6, align 4
  %22 = add i32 %21, 1
  store i32 %22, ptr %6, align 4
  %23 = load ptr, ptr %8, align 8
  %24 = load i32, ptr @hf_bthci_evt_local_sam_tx_availability, align 4
  %25 = load ptr, ptr %5, align 8
  %26 = load i32, ptr %6, align 4
  %27 = call ptr @proto_tree_add_item(ptr noundef %23, i32 noundef %24, ptr noundef %25, i32 noundef %26, i32 noundef 1, i32 noundef 0)
  %28 = load i32, ptr %6, align 4
  %29 = add i32 %28, 1
  store i32 %29, ptr %6, align 4
  %30 = load ptr, ptr %8, align 8
  %31 = load i32, ptr @hf_bthci_evt_local_sam_rx_availability, align 4
  %32 = load ptr, ptr %5, align 8
  %33 = load i32, ptr %6, align 4
  %34 = call ptr @proto_tree_add_item(ptr noundef %30, i32 noundef %31, ptr noundef %32, i32 noundef %33, i32 noundef 1, i32 noundef 0)
  %35 = load i32, ptr %6, align 4
  %36 = add i32 %35, 1
  store i32 %36, ptr %6, align 4
  %37 = load ptr, ptr %8, align 8
  %38 = load i32, ptr @hf_bthci_evt_remote_sam_index, align 4
  %39 = load ptr, ptr %5, align 8
  %40 = load i32, ptr %6, align 4
  %41 = call ptr @proto_tree_add_item(ptr noundef %37, i32 noundef %38, ptr noundef %39, i32 noundef %40, i32 noundef 1, i32 noundef 0)
  %42 = load i32, ptr %6, align 4
  %43 = add i32 %42, 1
  store i32 %43, ptr %6, align 4
  %44 = load ptr, ptr %8, align 8
  %45 = load i32, ptr @hf_bthci_evt_remote_sam_tx_availability, align 4
  %46 = load ptr, ptr %5, align 8
  %47 = load i32, ptr %6, align 4
  %48 = call ptr @proto_tree_add_item(ptr noundef %44, i32 noundef %45, ptr noundef %46, i32 noundef %47, i32 noundef 1, i32 noundef 0)
  %49 = load i32, ptr %6, align 4
  %50 = add i32 %49, 1
  store i32 %50, ptr %6, align 4
  %51 = load ptr, ptr %8, align 8
  %52 = load i32, ptr @hf_bthci_evt_remote_sam_rx_availability, align 4
  %53 = load ptr, ptr %5, align 8
  %54 = load i32, ptr %6, align 4
  %55 = call ptr @proto_tree_add_item(ptr noundef %51, i32 noundef %52, ptr noundef %53, i32 noundef %54, i32 noundef 1, i32 noundef 0)
  %56 = load i32, ptr %6, align 4
  %57 = add i32 %56, 1
  store i32 %57, ptr %6, align 4
  %58 = load i32, ptr %6, align 4
  ret i32 %58
}